; Function Attrs: nounwind uwtable
define dso_local i32 @Curl_pgrsDone(ptr noundef initializes((2592, 2600), (2616, 2624), (2664, 2672), (2720, 2728)) %0) local_unnamed_addr #0 {
  %2 = getelementptr inbounds nuw i8, ptr %0, i64 2592
  store i64 0, ptr %2, align 8, !tbaa !4
  %3 = tail call i32 @Curl_pgrsUpdate(ptr noundef %0)
  %.not = icmp eq i32 %3, 0
  br i1 %.not, label %4, label %18

4:                                                ; preds = %1
  %5 = getelementptr inbounds nuw i8, ptr %0, i64 2716
  %6 = load i32, ptr %5, align 4, !tbaa !77
  %7 = and i32 %6, 16
  %.not9 = icmp eq i32 %7, 0
  br i1 %.not9, label %8, label %16

8:                                                ; preds = %4
  %9 = getelementptr inbounds nuw i8, ptr %0, i64 3004
  %10 = load i8, ptr %9, align 4
  %11 = and i8 %10, 1
  %.not10 = icmp eq i8 %11, 0
  br i1 %.not10, label %12, label %16

12:                                               ; preds = %8
  %13 = getelementptr inbounds nuw i8, ptr %0, i64 456
  %14 = load ptr, ptr %13, align 8, !tbaa !78
  %15 = tail call i32 (ptr, ptr, ...) @curl_mfprintf(ptr noundef %14, ptr noundef nonnull @.str) #8
  br label %16

16:                                               ; preds = %12, %8, %4
  %17 = getelementptr inbounds nuw i8, ptr %0, i64 3000
  store i32 0, ptr %17, align 8, !tbaa !79
  br label %18

18:                                               ; preds = %1, %16
  ret i32 %3
}